; Function Attrs: mustprogress nofree norecurse nosync nounwind willreturn memory(argmem: write) uwtable
define void @_ZN8QuantLib19DoubleBarrierOption9argumentsC1Ev(ptr nocapture noundef nonnull writeonly align 8 dereferenceable(72) %this) unnamed_addr #15 align 2 personality ptr @__gxx_personality_v0 {
invoke.cont8:
  %payoff.i = getelementptr inbounds nuw i8, ptr %this, i64 8
  tail call void @llvm.memset.p0.i64(ptr noundef nonnull align 8 dereferenceable(32) %payoff.i, i8 0, i64 32, i1 false)
  store ptr getelementptr inbounds inrange(-40, 24) (i8, ptr @_ZTVN8QuantLib19DoubleBarrierOption9argumentsE, i64 40), ptr %this, align 8, !tbaa !33
  %barrierType = getelementptr inbounds nuw i8, ptr %this, i64 40
  store i32 -1, ptr %barrierType, align 8, !tbaa !70
  %barrier_lo = getelementptr inbounds nuw i8, ptr %this, i64 48
  store double 0x47EFFFFFE0000000, ptr %barrier_lo, align 8, !tbaa !73
  %barrier_hi = getelementptr inbounds nuw i8, ptr %this, i64 56
  store double 0x47EFFFFFE0000000, ptr %barrier_hi, align 8, !tbaa !74
  %rebate = getelementptr inbounds nuw i8, ptr %this, i64 64
  store double 0x47EFFFFFE0000000, ptr %rebate, align 8, !tbaa !75
  ret void
}